target datalayout = "e-m:e-p270:32:32-p271:32:32-p272:64:64-i64:64-i128:128-f80:128-n8:16:32:64-S128"
target triple = "x86_64-pc-linux-gnu"

%struct.Gia_Sim2_t_ = type { ptr, ptr, i32, ptr, ptr, ptr }
%struct.Vec_Int_t_ = type { i32, i32, ptr }
%struct.Gia_Man_t_ = type { ptr, ptr, i32, i32, i32, i32, ptr, ptr, i32, i32, i32, ptr, ptr, %struct.Vec_Int_t_, %struct.Vec_Int_t_, i32, i32, i32, %struct.Vec_Int_t_, ptr, ptr, ptr, i32, i32, i32, i32, ptr, ptr, ptr, ptr, ptr, i32, i32, ptr, i32, ptr, ptr, ptr, ptr, ptr, ptr, ptr, ptr, ptr, ptr, ptr, ptr, ptr, ptr, ptr, ptr, ptr, ptr, %struct.Vec_Int_t_, %struct.Vec_Int_t_, ptr, ptr, ptr, ptr, ptr, ptr, ptr, ptr, ptr, ptr, ptr, ptr, ptr, ptr, ptr, ptr, ptr, ptr, ptr, ptr, ptr, i32, float, float, ptr, ptr, i32, ptr, ptr, ptr, ptr, ptr, ptr, ptr, ptr, ptr, ptr, ptr, ptr, ptr, ptr, ptr, i64, i64, ptr, ptr, i32, i32, i32, i32, i32, i32, i32, i32, i32, i32, i32, i32, ptr, ptr, ptr, ptr, ptr, ptr, ptr, ptr, i32, i32, i32, ptr, i32, i32, ptr, ptr, ptr, ptr, ptr, ptr, i32, i32, ptr, %struct.Vec_Int_t_, %struct.Vec_Int_t_, %struct.Vec_Int_t_, ptr, ptr, ptr, i32, i32, i32, i32, ptr, ptr, ptr, ptr, ptr }
%struct.Gia_Rpr_t_ = type { i32 }

@Gia_Sim2HashKey.s_Primes = internal global [16 x i32] [i32 1291, i32 1699, i32 1999, i32 2357, i32 2953, i32 3313, i32 3907, i32 4177, i32 4831, i32 5147, i32 5647, i32 6343, i32 6899, i32 7103, i32 7873, i32 8147], align 16

; Function Attrs: inlinehint nounwind uwtable
define internal i32 @Gia_ObjRepr(ptr noundef %0, i32 noundef %1) #1 {
  %3 = alloca ptr, align 8
  %4 = alloca i32, align 4
  store ptr %0, ptr %3, align 8, !tbaa !20
  store i32 %1, ptr %4, align 4, !tbaa !30
  %5 = load ptr, ptr %3, align 8, !tbaa !20
  %6 = getelementptr inbounds nuw %struct.Gia_Man_t_, ptr %5, i32 0, i32 27
  %7 = load ptr, ptr %6, align 8, !tbaa !65
  %8 = load i32, ptr %4, align 4, !tbaa !30
  %9 = sext i32 %8 to i64
  %10 = getelementptr inbounds %struct.Gia_Rpr_t_, ptr %7, i64 %9
  %11 = load i32, ptr %10, align 4
  %12 = and i32 %11, 268435455
  ret i32 %12
}

; Function Attrs: inlinehint nounwind uwtable
define internal void @Gia_ObjSetNext(ptr noundef %0, i32 noundef %1, i32 noundef %2) #1 {
  %4 = alloca ptr, align 8
  %5 = alloca i32, align 4
  %6 = alloca i32, align 4
  store ptr %0, ptr %4, align 8, !tbaa !20
  store i32 %1, ptr %5, align 4, !tbaa !30
  store i32 %2, ptr %6, align 4, !tbaa !30
  %7 = load i32, ptr %6, align 4, !tbaa !30
  %8 = load ptr, ptr %4, align 8, !tbaa !20
  %9 = getelementptr inbounds nuw %struct.Gia_Man_t_, ptr %8, i32 0, i32 28
  %10 = load ptr, ptr %9, align 8, !tbaa !66
  %11 = load i32, ptr %5, align 4, !tbaa !30
  %12 = sext i32 %11 to i64
  %13 = getelementptr inbounds i32, ptr %10, i64 %12
  store i32 %7, ptr %13, align 4, !tbaa !30
  ret void
}

; Function Attrs: inlinehint nounwind uwtable
define internal void @Gia_ObjSetRepr(ptr noundef %0, i32 noundef %1, i32 noundef %2) #1 {
  %4 = alloca ptr, align 8
  %5 = alloca i32, align 4
  %6 = alloca i32, align 4
  store ptr %0, ptr %4, align 8, !tbaa !20
  store i32 %1, ptr %5, align 4, !tbaa !30
  store i32 %2, ptr %6, align 4, !tbaa !30
  %7 = load i32, ptr %6, align 4, !tbaa !30
  %8 = load ptr, ptr %4, align 8, !tbaa !20
  %9 = getelementptr inbounds nuw %struct.Gia_Man_t_, ptr %8, i32 0, i32 27
  %10 = load ptr, ptr %9, align 8, !tbaa !65
  %11 = load i32, ptr %5, align 4, !tbaa !30
  %12 = sext i32 %11 to i64
  %13 = getelementptr inbounds %struct.Gia_Rpr_t_, ptr %10, i64 %12
  %14 = load i32, ptr %13, align 4
  %15 = and i32 %7, 268435455
  %16 = and i32 %14, -268435456
  %17 = or i32 %16, %15
  store i32 %17, ptr %13, align 4
  ret void
}

; Function Attrs: nounwind uwtable
define i32 @Gia_Sim2HashKey(ptr noundef %0, i32 noundef %1, i32 noundef %2) #0 {
  %4 = alloca ptr, align 8
  %5 = alloca i32, align 4
  %6 = alloca i32, align 4
  %7 = alloca i32, align 4
  %8 = alloca i32, align 4
  store ptr %0, ptr %4, align 8, !tbaa !59
  store i32 %1, ptr %5, align 4, !tbaa !30
  store i32 %2, ptr %6, align 4, !tbaa !30
  call void @llvm.lifetime.start.p0(i64 4, ptr %7) #11
  store i32 0, ptr %7, align 4, !tbaa !30
  call void @llvm.lifetime.start.p0(i64 4, ptr %8) #11
  %9 = load ptr, ptr %4, align 8, !tbaa !59
  %10 = getelementptr inbounds i32, ptr %9, i64 0
  %11 = load i32, ptr %10, align 4, !tbaa !30
  %12 = and i32 %11, 1
  %13 = icmp ne i32 %12, 0
  br i1 %13, label %14, label %38

14:                                               ; preds = %3
  store i32 0, ptr %8, align 4, !tbaa !30
  br label %15

15:                                               ; preds = %34, %14
  %16 = load i32, ptr %8, align 4, !tbaa !30
  %17 = load i32, ptr %5, align 4, !tbaa !30
  %18 = icmp slt i32 %16, %17
  br i1 %18, label %19, label %37

19:                                               ; preds = %15
  %20 = load ptr, ptr %4, align 8, !tbaa !59
  %21 = load i32, ptr %8, align 4, !tbaa !30
  %22 = sext i32 %21 to i64
  %23 = getelementptr inbounds i32, ptr %20, i64 %22
  %24 = load i32, ptr %23, align 4, !tbaa !30
  %25 = xor i32 %24, -1
  %26 = load i32, ptr %8, align 4, !tbaa !30
  %27 = and i32 %26, 15
  %28 = sext i32 %27 to i64
  %29 = getelementptr inbounds [16 x i32], ptr @Gia_Sim2HashKey.s_Primes, i64 0, i64 %28
  %30 = load i32, ptr %29, align 4, !tbaa !30
  %31 = mul i32 %25, %30
  %32 = load i32, ptr %7, align 4, !tbaa !30
  %33 = xor i32 %32, %31
  store i32 %33, ptr %7, align 4, !tbaa !30
  br label %34

34:                                               ; preds = %19
  %35 = load i32, ptr %8, align 4, !tbaa !30
  %36 = add nsw i32 %35, 1
  store i32 %36, ptr %8, align 4, !tbaa !30
  br label %15, !llvm.loop !68

37:                                               ; preds = %15
  br label %61

38:                                               ; preds = %3
  store i32 0, ptr %8, align 4, !tbaa !30
  br label %39

39:                                               ; preds = %57, %38
  %40 = load i32, ptr %8, align 4, !tbaa !30
  %41 = load i32, ptr %5, align 4, !tbaa !30
  %42 = icmp slt i32 %40, %41
  br i1 %42, label %43, label %60

43:                                               ; preds = %39
  %44 = load ptr, ptr %4, align 8, !tbaa !59
  %45 = load i32, ptr %8, align 4, !tbaa !30
  %46 = sext i32 %45 to i64
  %47 = getelementptr inbounds i32, ptr %44, i64 %46
  %48 = load i32, ptr %47, align 4, !tbaa !30
  %49 = load i32, ptr %8, align 4, !tbaa !30
  %50 = and i32 %49, 15
  %51 = sext i32 %50 to i64
  %52 = getelementptr inbounds [16 x i32], ptr @Gia_Sim2HashKey.s_Primes, i64 0, i64 %51
  %53 = load i32, ptr %52, align 4, !tbaa !30
  %54 = mul i32 %48, %53
  %55 = load i32, ptr %7, align 4, !tbaa !30
  %56 = xor i32 %55, %54
  store i32 %56, ptr %7, align 4, !tbaa !30
  br label %57

57:                                               ; preds = %43
  %58 = load i32, ptr %8, align 4, !tbaa !30
  %59 = add nsw i32 %58, 1
  store i32 %59, ptr %8, align 4, !tbaa !30
  br label %39, !llvm.loop !69

60:                                               ; preds = %39
  br label %61

61:                                               ; preds = %60, %37
  %62 = load i32, ptr %7, align 4, !tbaa !30
  %63 = load i32, ptr %6, align 4, !tbaa !30
  %64 = urem i32 %62, %63
  call void @llvm.lifetime.end.p0(i64 4, ptr %8) #11
  call void @llvm.lifetime.end.p0(i64 4, ptr %7) #11
  ret i32 %64
}

; Function Attrs: inlinehint nounwind uwtable
define internal ptr @Gia_Sim2Data(ptr noundef %0, i32 noundef %1) #1 {
  %3 = alloca ptr, align 8
  %4 = alloca i32, align 4
  store ptr %0, ptr %3, align 8, !tbaa !3
  store i32 %1, ptr %4, align 4, !tbaa !30
  %5 = load ptr, ptr %3, align 8, !tbaa !3
  %6 = getelementptr inbounds nuw %struct.Gia_Sim2_t_, ptr %5, i32 0, i32 3
  %7 = load ptr, ptr %6, align 8, !tbaa !8
  %8 = load i32, ptr %4, align 4, !tbaa !30
  %9 = load ptr, ptr %3, align 8, !tbaa !3
  %10 = getelementptr inbounds nuw %struct.Gia_Sim2_t_, ptr %9, i32 0, i32 2
  %11 = load i32, ptr %10, align 8, !tbaa !26
  %12 = mul nsw i32 %8, %11
  %13 = sext i32 %12 to i64
  %14 = getelementptr inbounds i32, ptr %7, i64 %13
  ret ptr %14
}

; Function Attrs: inlinehint nounwind uwtable
define internal i32 @Vec_IntEntry(ptr noundef %0, i32 noundef %1) #1 {
  %3 = alloca ptr, align 8
  %4 = alloca i32, align 4
  store ptr %0, ptr %3, align 8, !tbaa !17
  store i32 %1, ptr %4, align 4, !tbaa !30
  %5 = load ptr, ptr %3, align 8, !tbaa !17
  %6 = getelementptr inbounds nuw %struct.Vec_Int_t_, ptr %5, i32 0, i32 2
  %7 = load ptr, ptr %6, align 8, !tbaa !18
  %8 = load i32, ptr %4, align 4, !tbaa !30
  %9 = sext i32 %8 to i64
  %10 = getelementptr inbounds i32, ptr %7, i64 %9
  %11 = load i32, ptr %10, align 4, !tbaa !30
  ret i32 %11
}

; Function Attrs: inlinehint nounwind uwtable
define internal i32 @Abc_PrimeCudd(i32 noundef %0) #1 {
  %2 = alloca i32, align 4
  %3 = alloca i32, align 4
  %4 = alloca i32, align 4
  store i32 %0, ptr %2, align 4, !tbaa !30
  call void @llvm.lifetime.start.p0(i64 4, ptr %3) #11
  call void @llvm.lifetime.start.p0(i64 4, ptr %4) #11
  %5 = load i32, ptr %2, align 4, !tbaa !30
  %6 = add i32 %5, -1
  store i32 %6, ptr %2, align 4, !tbaa !30
  br label %7

7:                                                ; preds = %32, %1
  %8 = load i32, ptr %2, align 4, !tbaa !30
  %9 = add i32 %8, 1
  store i32 %9, ptr %2, align 4, !tbaa !30
  %10 = load i32, ptr %2, align 4, !tbaa !30
  %11 = and i32 %10, 1
  %12 = icmp ne i32 %11, 0
  br i1 %12, label %13, label %30

13:                                               ; preds = %7
  store i32 1, ptr %4, align 4, !tbaa !30
  store i32 3, ptr %3, align 4, !tbaa !30
  br label %14

14:                                               ; preds = %26, %13
  %15 = load i32, ptr %3, align 4, !tbaa !30
  %16 = load i32, ptr %3, align 4, !tbaa !30
  %17 = mul nsw i32 %15, %16
  %18 = load i32, ptr %2, align 4, !tbaa !30
  %19 = icmp ule i32 %17, %18
  br i1 %19, label %20, label %29

20:                                               ; preds = %14
  %21 = load i32, ptr %2, align 4, !tbaa !30
  %22 = load i32, ptr %3, align 4, !tbaa !30
  %23 = urem i32 %21, %22
  %24 = icmp eq i32 %23, 0
  br i1 %24, label %25, label %26

25:                                               ; preds = %20
  store i32 0, ptr %4, align 4, !tbaa !30
  br label %29

26:                                               ; preds = %20
  %27 = load i32, ptr %3, align 4, !tbaa !30
  %28 = add nsw i32 %27, 2
  store i32 %28, ptr %3, align 4, !tbaa !30
  br label %14, !llvm.loop !71

29:                                               ; preds = %25, %14
  br label %31

30:                                               ; preds = %7
  store i32 0, ptr %4, align 4, !tbaa !30
  br label %31

31:                                               ; preds = %30, %29
  br label %32

32:                                               ; preds = %31
  %33 = load i32, ptr %4, align 4, !tbaa !30
  %34 = icmp ne i32 %33, 0
  %35 = xor i1 %34, true
  br i1 %35, label %7, label %36, !llvm.loop !72

36:                                               ; preds = %32
  %37 = load i32, ptr %2, align 4, !tbaa !30
  call void @llvm.lifetime.end.p0(i64 4, ptr %4) #11
  call void @llvm.lifetime.end.p0(i64 4, ptr %3) #11
  ret i32 %37
}

; Function Attrs: inlinehint nounwind uwtable
define internal i32 @Vec_IntSize(ptr noundef %0) #1 {
  %2 = alloca ptr, align 8
  store ptr %0, ptr %2, align 8, !tbaa !17
  %3 = load ptr, ptr %2, align 8, !tbaa !17
  %4 = getelementptr inbounds nuw %struct.Vec_Int_t_, ptr %3, i32 0, i32 1
  %5 = load i32, ptr %4, align 4, !tbaa !56
  ret i32 %5
}

; Function Attrs: nounwind uwtable
define void @Gia_Sim2ProcessRefined(ptr noundef %0, ptr noundef %1) #0 {
  %3 = alloca ptr, align 8
  %4 = alloca ptr, align 8
  %5 = alloca ptr, align 8
  %6 = alloca ptr, align 8
  %7 = alloca i32, align 4
  %8 = alloca i32, align 4
  %9 = alloca i32, align 4
  %10 = alloca i32, align 4
  %11 = alloca i32, align 4
  store ptr %0, ptr %3, align 8, !tbaa !3
  store ptr %1, ptr %4, align 8, !tbaa !17
  call void @llvm.lifetime.start.p0(i64 8, ptr %5) #11
  call void @llvm.lifetime.start.p0(i64 8, ptr %6) #11
  call void @llvm.lifetime.start.p0(i64 4, ptr %7) #11
  call void @llvm.lifetime.start.p0(i64 4, ptr %8) #11
  call void @llvm.lifetime.start.p0(i64 4, ptr %9) #11
  call void @llvm.lifetime.start.p0(i64 4, ptr %10) #11
  %12 = load ptr, ptr %4, align 8, !tbaa !17
  %13 = call i32 @Vec_IntSize(ptr noundef %12)
  %14 = icmp eq i32 %13, 0
  br i1 %14, label %15, label %16

15:                                               ; preds = %2
  store i32 1, ptr %11, align 4
  br label %113

16:                                               ; preds = %2
  %17 = load ptr, ptr %4, align 8, !tbaa !17
  %18 = call i32 @Vec_IntSize(ptr noundef %17)
  %19 = sdiv i32 %18, 3
  %20 = add nsw i32 1000, %19
  %21 = call i32 @Abc_PrimeCudd(i32 noundef %20)
  store i32 %21, ptr %7, align 4, !tbaa !30
  %22 = load i32, ptr %7, align 4, !tbaa !30
  %23 = sext i32 %22 to i64
  %24 = call noalias ptr @calloc(i64 noundef %23, i64 noundef 4) #12
  store ptr %24, ptr %6, align 8, !tbaa !59
  store i32 0, ptr %9, align 4, !tbaa !30
  br label %25

25:                                               ; preds = %103, %16
  %26 = load i32, ptr %9, align 4, !tbaa !30
  %27 = load ptr, ptr %4, align 8, !tbaa !17
  %28 = call i32 @Vec_IntSize(ptr noundef %27)
  %29 = icmp slt i32 %26, %28
  br i1 %29, label %30, label %34

30:                                               ; preds = %25
  %31 = load ptr, ptr %4, align 8, !tbaa !17
  %32 = load i32, ptr %9, align 4, !tbaa !30
  %33 = call i32 @Vec_IntEntry(ptr noundef %31, i32 noundef %32)
  store i32 %33, ptr %8, align 4, !tbaa !30
  br label %34

34:                                               ; preds = %30, %25
  %35 = phi i1 [ false, %25 ], [ true, %30 ]
  br i1 %35, label %36, label %106

36:                                               ; preds = %34
  %37 = load ptr, ptr %3, align 8, !tbaa !3
  %38 = load i32, ptr %8, align 4, !tbaa !30
  %39 = call ptr @Gia_Sim2Data(ptr noundef %37, i32 noundef %38)
  store ptr %39, ptr %5, align 8, !tbaa !59
  %40 = load ptr, ptr %5, align 8, !tbaa !59
  %41 = load ptr, ptr %3, align 8, !tbaa !3
  %42 = getelementptr inbounds nuw %struct.Gia_Sim2_t_, ptr %41, i32 0, i32 2
  %43 = load i32, ptr %42, align 8, !tbaa !26
  %44 = load i32, ptr %7, align 4, !tbaa !30
  %45 = call i32 @Gia_Sim2HashKey(ptr noundef %40, i32 noundef %43, i32 noundef %44)
  store i32 %45, ptr %10, align 4, !tbaa !30
  %46 = load ptr, ptr %6, align 8, !tbaa !59
  %47 = load i32, ptr %10, align 4, !tbaa !30
  %48 = sext i32 %47 to i64
  %49 = getelementptr inbounds i32, ptr %46, i64 %48
  %50 = load i32, ptr %49, align 4, !tbaa !30
  %51 = icmp eq i32 %50, 0
  br i1 %51, label %52, label %57

52:                                               ; preds = %36
  %53 = load ptr, ptr %3, align 8, !tbaa !3
  %54 = getelementptr inbounds nuw %struct.Gia_Sim2_t_, ptr %53, i32 0, i32 0
  %55 = load ptr, ptr %54, align 8, !tbaa !22
  %56 = load i32, ptr %8, align 4, !tbaa !30
  call void @Gia_ObjSetRepr(ptr noundef %55, i32 noundef %56, i32 noundef 268435455)
  br label %97

57:                                               ; preds = %36
  %58 = load ptr, ptr %3, align 8, !tbaa !3
  %59 = getelementptr inbounds nuw %struct.Gia_Sim2_t_, ptr %58, i32 0, i32 0
  %60 = load ptr, ptr %59, align 8, !tbaa !22
  %61 = load ptr, ptr %6, align 8, !tbaa !59
  %62 = load i32, ptr %10, align 4, !tbaa !30
  %63 = sext i32 %62 to i64
  %64 = getelementptr inbounds i32, ptr %61, i64 %63
  %65 = load i32, ptr %64, align 4, !tbaa !30
  %66 = load i32, ptr %8, align 4, !tbaa !30
  call void @Gia_ObjSetNext(ptr noundef %60, i32 noundef %65, i32 noundef %66)
  %67 = load ptr, ptr %3, align 8, !tbaa !3
  %68 = getelementptr inbounds nuw %struct.Gia_Sim2_t_, ptr %67, i32 0, i32 0
  %69 = load ptr, ptr %68, align 8, !tbaa !22
  %70 = load i32, ptr %8, align 4, !tbaa !30
  %71 = load ptr, ptr %3, align 8, !tbaa !3
  %72 = getelementptr inbounds nuw %struct.Gia_Sim2_t_, ptr %71, i32 0, i32 0
  %73 = load ptr, ptr %72, align 8, !tbaa !22
  %74 = load ptr, ptr %6, align 8, !tbaa !59
  %75 = load i32, ptr %10, align 4, !tbaa !30
  %76 = sext i32 %75 to i64
  %77 = getelementptr inbounds i32, ptr %74, i64 %76
  %78 = load i32, ptr %77, align 4, !tbaa !30
  %79 = call i32 @Gia_ObjRepr(ptr noundef %73, i32 noundef %78)
  call void @Gia_ObjSetRepr(ptr noundef %69, i32 noundef %70, i32 noundef %79)
  %80 = load ptr, ptr %3, align 8, !tbaa !3
  %81 = getelementptr inbounds nuw %struct.Gia_Sim2_t_, ptr %80, i32 0, i32 0
  %82 = load ptr, ptr %81, align 8, !tbaa !22
  %83 = load i32, ptr %8, align 4, !tbaa !30
  %84 = call i32 @Gia_ObjRepr(ptr noundef %82, i32 noundef %83)
  %85 = icmp eq i32 %84, 268435455
  br i1 %85, label %86, label %96

86:                                               ; preds = %57
  %87 = load ptr, ptr %3, align 8, !tbaa !3
  %88 = getelementptr inbounds nuw %struct.Gia_Sim2_t_, ptr %87, i32 0, i32 0
  %89 = load ptr, ptr %88, align 8, !tbaa !22
  %90 = load i32, ptr %8, align 4, !tbaa !30
  %91 = load ptr, ptr %6, align 8, !tbaa !59
  %92 = load i32, ptr %10, align 4, !tbaa !30
  %93 = sext i32 %92 to i64
  %94 = getelementptr inbounds i32, ptr %91, i64 %93
  %95 = load i32, ptr %94, align 4, !tbaa !30
  call void @Gia_ObjSetRepr(ptr noundef %89, i32 noundef %90, i32 noundef %95)
  br label %96

96:                                               ; preds = %86, %57
  br label %97

97:                                               ; preds = %96, %52
  %98 = load i32, ptr %8, align 4, !tbaa !30
  %99 = load ptr, ptr %6, align 8, !tbaa !59
  %100 = load i32, ptr %10, align 4, !tbaa !30
  %101 = sext i32 %100 to i64
  %102 = getelementptr inbounds i32, ptr %99, i64 %101
  store i32 %98, ptr %102, align 4, !tbaa !30
  br label %103

103:                                              ; preds = %97
  %104 = load i32, ptr %9, align 4, !tbaa !30
  %105 = add nsw i32 %104, 1
  store i32 %105, ptr %9, align 4, !tbaa !30
  br label %25, !llvm.loop !70

106:                                              ; preds = %34
  %107 = load ptr, ptr %6, align 8, !tbaa !59
  %108 = icmp ne ptr %107, null
  br i1 %108, label %109, label %111

109:                                              ; preds = %106
  %110 = load ptr, ptr %6, align 8, !tbaa !59
  call void @free(ptr noundef %110) #11
  store ptr null, ptr %6, align 8, !tbaa !59
  br label %112

111:                                              ; preds = %106
  br label %112

112:                                              ; preds = %111, %109
  store i32 0, ptr %11, align 4
  br label %113

113:                                              ; preds = %112, %15
  call void @llvm.lifetime.end.p0(i64 4, ptr %10) #11
  call void @llvm.lifetime.end.p0(i64 4, ptr %9) #11
  call void @llvm.lifetime.end.p0(i64 4, ptr %8) #11
  call void @llvm.lifetime.end.p0(i64 4, ptr %7) #11
  call void @llvm.lifetime.end.p0(i64 8, ptr %6) #11
  call void @llvm.lifetime.end.p0(i64 8, ptr %5) #11
  %114 = load i32, ptr %11, align 4
  switch i32 %114, label %116 [
    i32 0, label %115
    i32 1, label %115
  ]

115:                                              ; preds = %113, %113
  ret void

116:                                              ; preds = %113
  unreachable
}