; Function Attrs: nounwind uwtable
define void @Gia_Sim2ProcessRefined(ptr noundef readonly captures(none) %0, ptr noundef readonly captures(none) %1) local_unnamed_addr #2 {
  %3 = getelementptr i8, ptr %1, i64 4
  %.val39 = load i32, ptr %3, align 4, !tbaa !38
  %4 = icmp eq i32 %.val39, 0
  br i1 %4, label %83, label %5

5:                                                ; preds = %2
  %6 = sdiv i32 %.val39, 3
  %7 = add nsw i32 %6, 999
  br label %.loopexit.i

.loopexit.i:                                      ; preds = %.loopexit.i.backedge, %5
  %.012.i = phi i32 [ %7, %5 ], [ %8, %.loopexit.i.backedge ]
  %8 = add i32 %.012.i, 1
  %9 = and i32 %.012.i, 1
  %.not.not.i = icmp eq i32 %9, 0
  br i1 %.not.not.i, label %.preheader.i, label %.loopexit.i.backedge

.loopexit.i.backedge:                             ; preds = %.lr.ph.i, %.loopexit.i
  br label %.loopexit.i, !llvm.loop !64

.preheader.i:                                     ; preds = %.loopexit.i
  %.not15.i = icmp ult i32 %8, 9
  br i1 %.not15.i, label %Abc_PrimeCudd.exit, label %.lr.ph.i

10:                                               ; preds = %.lr.ph.i
  %11 = add nuw nsw i32 %.01116.i, 2
  %12 = mul nuw nsw i32 %11, %11
  %.not.i = icmp ugt i32 %12, %8
  br i1 %.not.i, label %Abc_PrimeCudd.exit, label %.lr.ph.i, !llvm.loop !65

.lr.ph.i:                                         ; preds = %.preheader.i, %10
  %.01116.i = phi i32 [ %11, %10 ], [ 3, %.preheader.i ]
  %13 = urem i32 %8, %.01116.i
  %14 = icmp eq i32 %13, 0
  br i1 %14, label %.loopexit.i.backedge, label %10, !llvm.loop !64

Abc_PrimeCudd.exit:                               ; preds = %.preheader.i, %10
  %15 = sext i32 %8 to i64
  %16 = tail call noalias ptr @calloc(i64 noundef %15, i64 noundef 4) #17
  %17 = icmp sgt i32 %.val39, 0
  br i1 %17, label %.lr.ph, label %.critedge

.lr.ph:                                           ; preds = %Abc_PrimeCudd.exit
  %18 = getelementptr i8, ptr %1, i64 8
  %19 = getelementptr i8, ptr %0, i64 16
  %20 = getelementptr i8, ptr %0, i64 24
  br label %21

21:                                               ; preds = %.lr.ph, %80
  %indvars.iv = phi i64 [ 0, %.lr.ph ], [ %indvars.iv.next, %80 ]
  %.val40 = load ptr, ptr %18, align 8, !tbaa !8
  %22 = getelementptr inbounds nuw i32, ptr %.val40, i64 %indvars.iv
  %23 = load i32, ptr %22, align 4, !tbaa !48
  %.val45 = load i32, ptr %19, align 8, !tbaa !20
  %.val46 = load ptr, ptr %20, align 8, !tbaa !12
  %24 = mul nsw i32 %.val45, %23
  %25 = sext i32 %24 to i64
  %26 = getelementptr inbounds i32, ptr %.val46, i64 %25
  %27 = load i32, ptr %26, align 4, !tbaa !48
  %28 = and i32 %27, 1
  %.not.i49 = icmp eq i32 %28, 0
  %29 = icmp sgt i32 %.val45, 0
  br i1 %.not.i49, label %.preheader.i52, label %.preheader18.i

.preheader18.i:                                   ; preds = %21
  br i1 %29, label %.lr.ph.preheader.i, label %Gia_Sim2HashKey.exit

.lr.ph.preheader.i:                               ; preds = %.preheader18.i
  %wide.trip.count.i = zext nneg i32 %.val45 to i64
  br label %.lr.ph.i51

.preheader.i52:                                   ; preds = %21
  br i1 %29, label %.lr.ph24.preheader.i, label %Gia_Sim2HashKey.exit

.lr.ph24.preheader.i:                             ; preds = %.preheader.i52
  %wide.trip.count32.i = zext nneg i32 %.val45 to i64
  br label %.lr.ph24.i

.lr.ph.i51:                                       ; preds = %.lr.ph.i51, %.lr.ph.preheader.i
  %indvars.iv.i = phi i64 [ 0, %.lr.ph.preheader.i ], [ %indvars.iv.next.i, %.lr.ph.i51 ]
  %.01620.i = phi i32 [ 0, %.lr.ph.preheader.i ], [ %37, %.lr.ph.i51 ]
  %30 = getelementptr inbounds nuw i32, ptr %26, i64 %indvars.iv.i
  %31 = load i32, ptr %30, align 4, !tbaa !48
  %32 = xor i32 %31, -1
  %33 = and i64 %indvars.iv.i, 15
  %34 = getelementptr inbounds nuw [16 x i32], ptr @Gia_Sim2HashKey.s_Primes, i64 0, i64 %33
  %35 = load i32, ptr %34, align 4, !tbaa !48
  %36 = mul i32 %35, %32
  %37 = xor i32 %36, %.01620.i
  %indvars.iv.next.i = add nuw nsw i64 %indvars.iv.i, 1
  %exitcond.not.i = icmp eq i64 %indvars.iv.next.i, %wide.trip.count.i
  br i1 %exitcond.not.i, label %Gia_Sim2HashKey.exit, label %.lr.ph.i51, !llvm.loop !62

.lr.ph24.i:                                       ; preds = %.lr.ph24.i, %.lr.ph24.preheader.i
  %indvars.iv29.i = phi i64 [ 0, %.lr.ph24.preheader.i ], [ %indvars.iv.next30.i, %.lr.ph24.i ]
  %.222.i = phi i32 [ 0, %.lr.ph24.preheader.i ], [ %44, %.lr.ph24.i ]
  %38 = getelementptr inbounds nuw i32, ptr %26, i64 %indvars.iv29.i
  %39 = load i32, ptr %38, align 4, !tbaa !48
  %40 = and i64 %indvars.iv29.i, 15
  %41 = getelementptr inbounds nuw [16 x i32], ptr @Gia_Sim2HashKey.s_Primes, i64 0, i64 %40
  %42 = load i32, ptr %41, align 4, !tbaa !48
  %43 = mul i32 %42, %39
  %44 = xor i32 %43, %.222.i
  %indvars.iv.next30.i = add nuw nsw i64 %indvars.iv29.i, 1
  %exitcond33.not.i = icmp eq i64 %indvars.iv.next30.i, %wide.trip.count32.i
  br i1 %exitcond33.not.i, label %Gia_Sim2HashKey.exit, label %.lr.ph24.i, !llvm.loop !63

Gia_Sim2HashKey.exit:                             ; preds = %.lr.ph.i51, %.lr.ph24.i, %.preheader18.i, %.preheader.i52
  %.117.i = phi i32 [ 0, %.preheader.i52 ], [ 0, %.preheader18.i ], [ %44, %.lr.ph24.i ], [ %37, %.lr.ph.i51 ]
  %45 = urem i32 %.117.i, %8
  %46 = sext i32 %45 to i64
  %47 = getelementptr inbounds i32, ptr %16, i64 %46
  %48 = load i32, ptr %47, align 4, !tbaa !48
  %49 = icmp eq i32 %48, 0
  %50 = load ptr, ptr %0, align 8, !tbaa !16
  br i1 %49, label %51, label %57

51:                                               ; preds = %Gia_Sim2HashKey.exit
  %52 = getelementptr i8, ptr %50, i64 192
  %.val43 = load ptr, ptr %52, align 8, !tbaa !58
  %53 = sext i32 %23 to i64
  %54 = getelementptr inbounds %struct.Gia_Rpr_t_, ptr %.val43, i64 %53
  %55 = load i32, ptr %54, align 4
  %56 = or i32 %55, 268435455
  store i32 %56, ptr %54, align 4
  br label %80

57:                                               ; preds = %Gia_Sim2HashKey.exit
  %58 = getelementptr i8, ptr %50, i64 200
  %.val44 = load ptr, ptr %58, align 8, !tbaa !59
  %59 = sext i32 %48 to i64
  %60 = getelementptr inbounds i32, ptr %.val44, i64 %59
  store i32 %23, ptr %60, align 4, !tbaa !48
  %61 = getelementptr i8, ptr %50, i64 192
  %.val47 = load ptr, ptr %61, align 8, !tbaa !58
  %62 = getelementptr inbounds %struct.Gia_Rpr_t_, ptr %.val47, i64 %59
  %63 = load i32, ptr %62, align 4
  %64 = and i32 %63, 268435455
  %65 = sext i32 %23 to i64
  %66 = getelementptr inbounds %struct.Gia_Rpr_t_, ptr %.val47, i64 %65
  %67 = load i32, ptr %66, align 4
  %68 = and i32 %67, -268435456
  %69 = or disjoint i32 %68, %64
  store i32 %69, ptr %66, align 4
  %70 = load ptr, ptr %0, align 8, !tbaa !16
  %71 = getelementptr i8, ptr %70, i64 192
  %.val48 = load ptr, ptr %71, align 8, !tbaa !58
  %72 = getelementptr inbounds %struct.Gia_Rpr_t_, ptr %.val48, i64 %65
  %73 = load i32, ptr %72, align 4
  %74 = and i32 %73, 268435455
  %75 = icmp eq i32 %74, 268435455
  br i1 %75, label %76, label %80

76:                                               ; preds = %57
  %77 = and i32 %48, 268435455
  %78 = and i32 %73, -268435456
  %79 = or disjoint i32 %78, %77
  store i32 %79, ptr %72, align 4
  br label %80

80:                                               ; preds = %57, %76, %51
  store i32 %23, ptr %47, align 4, !tbaa !48
  %indvars.iv.next = add nuw nsw i64 %indvars.iv, 1
  %.val = load i32, ptr %3, align 4, !tbaa !38
  %81 = sext i32 %.val to i64
  %82 = icmp slt i64 %indvars.iv.next, %81
  br i1 %82, label %21, label %.critedge.thread, !llvm.loop !66

.critedge:                                        ; preds = %Abc_PrimeCudd.exit
  %.not = icmp eq ptr %16, null
  br i1 %.not, label %83, label %.critedge.thread

.critedge.thread:                                 ; preds = %80, %.critedge
  tail call void @free(ptr noundef nonnull %16) #16
  br label %83

83:                                               ; preds = %.critedge.thread, %.critedge, %2
  ret void
}